; Function Attrs: mustprogress nofree norecurse nosync nounwind willreturn memory(argmem: read) uwtable
define { ptr, i64 } @_ZNK5boost4urls6detail8url_impl3getEi(ptr nocapture noundef nonnull readonly align 8 dereferenceable(171) %0, i32 noundef %1) local_unnamed_addr #4 align 2 {
  %3 = load ptr, ptr %0, align 8, !tbaa !31
  %4 = icmp eq i32 %1, -1
  %5 = getelementptr inbounds nuw i8, ptr %0, i64 8
  br i1 %4, label %_ZNK5boost4urls6detail8url_impl6offsetEi.exit.i.thread, label %_ZNK5boost4urls6detail8url_impl6offsetEi.exit

_ZNK5boost4urls6detail8url_impl6offsetEi.exit.i.thread: ; preds = %2
  %6 = load i64, ptr %5, align 8, !tbaa !13
  br label %_ZNK5boost4urls6detail8url_impl6offsetEi.exit3.i

_ZNK5boost4urls6detail8url_impl6offsetEi.exit:    ; preds = %2
  %7 = sext i32 %1 to i64
  %8 = getelementptr inbounds [8 x i64], ptr %5, i64 0, i64 %7
  %9 = load i64, ptr %8, align 8, !tbaa !13
  %10 = getelementptr inbounds nuw i8, ptr %3, i64 %9
  %11 = icmp eq i32 %1, 7
  br i1 %11, label %_ZNK5boost4urls6detail8url_impl3lenEi.exit, label %12

12:                                               ; preds = %_ZNK5boost4urls6detail8url_impl6offsetEi.exit
  %13 = add nuw nsw i32 %1, 1
  %14 = icmp eq i32 %13, -1
  br i1 %14, label %_ZNK5boost4urls6detail8url_impl6offsetEi.exit3.i, label %_ZNK5boost4urls6detail8url_impl6offsetEi.exit.i

_ZNK5boost4urls6detail8url_impl6offsetEi.exit.i:  ; preds = %12
  %15 = sext i32 %13 to i64
  %16 = getelementptr inbounds [8 x i64], ptr %5, i64 0, i64 %15
  %17 = load i64, ptr %16, align 8, !tbaa !13
  br label %_ZNK5boost4urls6detail8url_impl6offsetEi.exit3.i

_ZNK5boost4urls6detail8url_impl6offsetEi.exit3.i: ; preds = %12, %_ZNK5boost4urls6detail8url_impl6offsetEi.exit.i, %_ZNK5boost4urls6detail8url_impl6offsetEi.exit.i.thread
  %18 = phi ptr [ %3, %_ZNK5boost4urls6detail8url_impl6offsetEi.exit.i.thread ], [ %10, %_ZNK5boost4urls6detail8url_impl6offsetEi.exit.i ], [ %10, %12 ]
  %19 = phi i64 [ %6, %_ZNK5boost4urls6detail8url_impl6offsetEi.exit.i.thread ], [ %17, %_ZNK5boost4urls6detail8url_impl6offsetEi.exit.i ], [ 0, %12 ]
  %20 = phi i64 [ 0, %_ZNK5boost4urls6detail8url_impl6offsetEi.exit.i.thread ], [ %9, %_ZNK5boost4urls6detail8url_impl6offsetEi.exit.i ], [ %9, %12 ]
  %21 = sub i64 %19, %20
  br label %_ZNK5boost4urls6detail8url_impl3lenEi.exit

_ZNK5boost4urls6detail8url_impl3lenEi.exit:       ; preds = %_ZNK5boost4urls6detail8url_impl6offsetEi.exit, %_ZNK5boost4urls6detail8url_impl6offsetEi.exit3.i
  %22 = phi ptr [ %18, %_ZNK5boost4urls6detail8url_impl6offsetEi.exit3.i ], [ %10, %_ZNK5boost4urls6detail8url_impl6offsetEi.exit ]
  %23 = phi i64 [ %21, %_ZNK5boost4urls6detail8url_impl6offsetEi.exit3.i ], [ 0, %_ZNK5boost4urls6detail8url_impl6offsetEi.exit ]
  %.fca.0.insert = insertvalue { ptr, i64 } poison, ptr %22, 0
  %.fca.1.insert = insertvalue { ptr, i64 } %.fca.0.insert, i64 %23, 1
  ret { ptr, i64 } %.fca.1.insert
}